(dp0
S'LD1J2_5950'
p1
F-5.305182434151966
sS'IA1B1_5950'
p2
F-7.807633050106865
sS'LD0J1_5950'
p3
F-5.809254625557948
sS'LA1J2_5150'
p4
F-1.0482633389555183
sS'LD1J2_5550'
p5
F-2.635377642183686
sS'LB1J2_5150'
p6
F0.7967123948914162
sS'LC0J1_5950'
p7
F-9.401395875517826
sS'LA0J1_5950'
p8
F-9.086576338573952
sS'LA1J2_5950'
p9
F-8.810968213840727
sS'LB0J1_5950'
p10
F-5.866274128340461
sS'LC1J2_5150'
p11
F-1.1326942676889626
sS'LB1J2_5950'
p12
F-5.375753462378874
sS'IC1B1_5550'
p13
F-3.8269254680673317
sS'LA0J1_5150'
p14
F-0.2490456737290548
sS'IA0D0_5950'
p15
F-7.704435896726772
sS'LA0J1_5550'
p16
F-3.864911954001466
sS'IC0B0_5950'
p17
F-7.680639149737865
sS'LD1J2_5150'
p18
F0.806963352177581
sS'LD0J1_5150'
p19
F1.5647308782946372
sS'IA0D0_5150'
p20
F-1.0285374097386637
sS'IA1B1_5550'
p21
F-3.85855938948908
sS'IA0B0_5950'
p22
F-7.702451476197538
sS'LC0J1_5150'
p23
F-0.4474529475404285
sS'IC0B0_5550'
p24
F-3.758446348719859
sS'IA1D1_5950'
p25
F-7.771265740241497
sS'LB0J1_5150'
p26
F1.5648008539432212
sS'LD0J1_5550'
p27
F-2.3244628471820676
sS'IA0D0_5550'
p28
F-3.858832830385088
sS'LC1J2_5550'
p29
F-4.219514092571761
sS'IC0B0_5150'
p30
F-0.9782636399504536
sS'IA1D1_5150'
p31
F-1.0711093965755794
sS'IA0B0_5150'
p32
F-0.9902506847780442
sS'IC1B1_5950'
p33
F-7.682139132865882
sS'LA1J2_5550'
p34
F-4.1591361594267315
sS'IA0B0_5550'
p35
F-3.8309436250279565
sS'IC1B1_5150'
p36
F-0.9778187010954174
sS'LC0J1_5550'
p37
F-4.093854068169731
sS'LC1J2_5950'
p38
F-8.92289418968183
sS'IA1D1_5550'
p39
F-3.8721286258740584
sS'LB0J1_5550'
p40
F-2.2704429756881854
sS'IA1B1_5150'
p41
F-1.0552426376962476
sS'LB1J2_5550'
p42
F-2.6280054866289153
s.